target datalayout = "e-m:e-p270:32:32-p271:32:32-p272:64:64-i64:64-i128:128-f80:128-n8:16:32:64-S128"
target triple = "x86_64-pc-linux-gnu"

; Function Attrs: inlinehint mustprogress nounwind uwtable
define internal void @_ZN2cv19connectedcomponentsL7setRootItEEvPT_S2_S2_(ptr noundef %0, i16 noundef zeroext %1, i16 noundef zeroext %2) #7 {
  %4 = alloca ptr, align 8
  %5 = alloca i16, align 2
  %6 = alloca i16, align 2
  %7 = alloca i16, align 2
  store ptr %0, ptr %4, align 8, !tbaa !96
  store i16 %1, ptr %5, align 2, !tbaa !94
  store i16 %2, ptr %6, align 2, !tbaa !94
  br label %8

8:                                                ; preds = %18, %3
  %9 = load ptr, ptr %4, align 8, !tbaa !96
  %10 = load i16, ptr %5, align 2, !tbaa !94
  %11 = zext i16 %10 to i64
  %12 = getelementptr inbounds nuw i16, ptr %9, i64 %11
  %13 = load i16, ptr %12, align 2, !tbaa !94
  %14 = zext i16 %13 to i32
  %15 = load i16, ptr %5, align 2, !tbaa !94
  %16 = zext i16 %15 to i32
  %17 = icmp slt i32 %14, %16
  br i1 %17, label %18, label %30

18:                                               ; preds = %8
  call void @llvm.lifetime.start.p0(i64 2, ptr %7) #14
  %19 = load ptr, ptr %4, align 8, !tbaa !96
  %20 = load i16, ptr %5, align 2, !tbaa !94
  %21 = zext i16 %20 to i64
  %22 = getelementptr inbounds nuw i16, ptr %19, i64 %21
  %23 = load i16, ptr %22, align 2, !tbaa !94
  store i16 %23, ptr %7, align 2, !tbaa !94
  %24 = load i16, ptr %6, align 2, !tbaa !94
  %25 = load ptr, ptr %4, align 8, !tbaa !96
  %26 = load i16, ptr %5, align 2, !tbaa !94
  %27 = zext i16 %26 to i64
  %28 = getelementptr inbounds nuw i16, ptr %25, i64 %27
  store i16 %24, ptr %28, align 2, !tbaa !94
  %29 = load i16, ptr %7, align 2, !tbaa !94
  store i16 %29, ptr %5, align 2, !tbaa !94
  call void @llvm.lifetime.end.p0(i64 2, ptr %7) #14
  br label %8, !llvm.loop !200

30:                                               ; preds = %8
  %31 = load i16, ptr %6, align 2, !tbaa !94
  %32 = load ptr, ptr %4, align 8, !tbaa !96
  %33 = load i16, ptr %5, align 2, !tbaa !94
  %34 = zext i16 %33 to i64
  %35 = getelementptr inbounds nuw i16, ptr %32, i64 %34
  store i16 %31, ptr %35, align 2, !tbaa !94
  ret void
}

; Function Attrs: inlinehint mustprogress nounwind uwtable
define internal noundef zeroext i16 @_ZN2cv19connectedcomponentsL8findRootItEET_PKS2_S2_(ptr noundef %0, i16 noundef zeroext %1) #7 {
  %3 = alloca ptr, align 8
  %4 = alloca i16, align 2
  %5 = alloca i16, align 2
  store ptr %0, ptr %3, align 8, !tbaa !96
  store i16 %1, ptr %4, align 2, !tbaa !94
  call void @llvm.lifetime.start.p0(i64 2, ptr %5) #14
  %6 = load i16, ptr %4, align 2, !tbaa !94
  store i16 %6, ptr %5, align 2, !tbaa !94
  br label %7

7:                                                ; preds = %17, %2
  %8 = load ptr, ptr %3, align 8, !tbaa !96
  %9 = load i16, ptr %5, align 2, !tbaa !94
  %10 = zext i16 %9 to i64
  %11 = getelementptr inbounds nuw i16, ptr %8, i64 %10
  %12 = load i16, ptr %11, align 2, !tbaa !94
  %13 = zext i16 %12 to i32
  %14 = load i16, ptr %5, align 2, !tbaa !94
  %15 = zext i16 %14 to i32
  %16 = icmp slt i32 %13, %15
  br i1 %16, label %17, label %23

17:                                               ; preds = %7
  %18 = load ptr, ptr %3, align 8, !tbaa !96
  %19 = load i16, ptr %5, align 2, !tbaa !94
  %20 = zext i16 %19 to i64
  %21 = getelementptr inbounds nuw i16, ptr %18, i64 %20
  %22 = load i16, ptr %21, align 2, !tbaa !94
  store i16 %22, ptr %5, align 2, !tbaa !94
  br label %7, !llvm.loop !199

23:                                               ; preds = %7
  %24 = load i16, ptr %5, align 2, !tbaa !94
  call void @llvm.lifetime.end.p0(i64 2, ptr %5) #14
  ret i16 %24
}

; Function Attrs: inlinehint mustprogress uwtable
define internal noundef zeroext i16 @_ZN2cv19connectedcomponentsL9set_unionItEET_PS2_S2_S2_(ptr noundef %0, i16 noundef zeroext %1, i16 noundef zeroext %2) #2 {
  %4 = alloca ptr, align 8
  %5 = alloca i16, align 2
  %6 = alloca i16, align 2
  %7 = alloca i16, align 2
  %8 = alloca i16, align 2
  store ptr %0, ptr %4, align 8, !tbaa !96
  store i16 %1, ptr %5, align 2, !tbaa !94
  store i16 %2, ptr %6, align 2, !tbaa !94
  call void @llvm.lifetime.start.p0(i64 2, ptr %7) #14
  %9 = load ptr, ptr %4, align 8, !tbaa !96
  %10 = load i16, ptr %5, align 2, !tbaa !94
  %11 = call noundef zeroext i16 @_ZN2cv19connectedcomponentsL8findRootItEET_PKS2_S2_(ptr noundef %9, i16 noundef zeroext %10)
  store i16 %11, ptr %7, align 2, !tbaa !94
  %12 = load i16, ptr %5, align 2, !tbaa !94
  %13 = zext i16 %12 to i32
  %14 = load i16, ptr %6, align 2, !tbaa !94
  %15 = zext i16 %14 to i32
  %16 = icmp ne i32 %13, %15
  br i1 %16, label %17, label %32

17:                                               ; preds = %3
  call void @llvm.lifetime.start.p0(i64 2, ptr %8) #14
  %18 = load ptr, ptr %4, align 8, !tbaa !96
  %19 = load i16, ptr %6, align 2, !tbaa !94
  %20 = call noundef zeroext i16 @_ZN2cv19connectedcomponentsL8findRootItEET_PKS2_S2_(ptr noundef %18, i16 noundef zeroext %19)
  store i16 %20, ptr %8, align 2, !tbaa !94
  %21 = load i16, ptr %7, align 2, !tbaa !94
  %22 = zext i16 %21 to i32
  %23 = load i16, ptr %8, align 2, !tbaa !94
  %24 = zext i16 %23 to i32
  %25 = icmp sgt i32 %22, %24
  br i1 %25, label %26, label %28

26:                                               ; preds = %17
  %27 = load i16, ptr %8, align 2, !tbaa !94
  store i16 %27, ptr %7, align 2, !tbaa !94
  br label %28

28:                                               ; preds = %26, %17
  %29 = load ptr, ptr %4, align 8, !tbaa !96
  %30 = load i16, ptr %6, align 2, !tbaa !94
  %31 = load i16, ptr %7, align 2, !tbaa !94
  call void @_ZN2cv19connectedcomponentsL7setRootItEEvPT_S2_S2_(ptr noundef %29, i16 noundef zeroext %30, i16 noundef zeroext %31)
  call void @llvm.lifetime.end.p0(i64 2, ptr %8) #14
  br label %32

32:                                               ; preds = %28, %3
  %33 = load ptr, ptr %4, align 8, !tbaa !96
  %34 = load i16, ptr %5, align 2, !tbaa !94
  %35 = load i16, ptr %7, align 2, !tbaa !94
  call void @_ZN2cv19connectedcomponentsL7setRootItEEvPT_S2_S2_(ptr noundef %33, i16 noundef zeroext %34, i16 noundef zeroext %35)
  %36 = load i16, ptr %7, align 2, !tbaa !94
  call void @llvm.lifetime.end.p0(i64 2, ptr %7) #14
  ret i16 %36
}