; Function Attrs: inlinehint mustprogress nofree norecurse nosync nounwind memory(argmem: readwrite) uwtable
define internal fastcc noundef zeroext i16 @_ZN2cv19connectedcomponentsL9set_unionItEET_PS2_S2_S2_(ptr noundef captures(none) %0, i16 noundef zeroext %1, i16 noundef zeroext %2) unnamed_addr #8 {
  br label %4

4:                                                ; preds = %4, %3
  %.0.i = phi i16 [ %1, %3 ], [ %7, %4 ]
  %5 = zext i16 %.0.i to i64
  %6 = getelementptr inbounds nuw i16, ptr %0, i64 %5
  %7 = load i16, ptr %6, align 2, !tbaa !50
  %8 = icmp ult i16 %7, %.0.i
  br i1 %8, label %4, label %_ZN2cv19connectedcomponentsL8findRootItEET_PKS2_S2_.exit, !llvm.loop !56

_ZN2cv19connectedcomponentsL8findRootItEET_PKS2_S2_.exit: ; preds = %4
  %.not = icmp eq i16 %1, %2
  br i1 %.not, label %23, label %.preheader

.preheader:                                       ; preds = %_ZN2cv19connectedcomponentsL8findRootItEET_PKS2_S2_.exit, %.preheader
  %.0.i15 = phi i16 [ %11, %.preheader ], [ %2, %_ZN2cv19connectedcomponentsL8findRootItEET_PKS2_S2_.exit ]
  %9 = zext i16 %.0.i15 to i64
  %10 = getelementptr inbounds nuw i16, ptr %0, i64 %9
  %11 = load i16, ptr %10, align 2, !tbaa !50
  %12 = icmp ult i16 %11, %.0.i15
  br i1 %12, label %.preheader, label %_ZN2cv19connectedcomponentsL8findRootItEET_PKS2_S2_.exit16, !llvm.loop !56

_ZN2cv19connectedcomponentsL8findRootItEET_PKS2_S2_.exit16: ; preds = %.preheader
  %spec.select = tail call i16 @llvm.umin.i16(i16 %.0.i, i16 %.0.i15)
  %13 = zext i16 %2 to i64
  %14 = getelementptr inbounds nuw i16, ptr %0, i64 %13
  %15 = load i16, ptr %14, align 2, !tbaa !50
  %16 = icmp ult i16 %15, %2
  br i1 %16, label %.lr.ph.i, label %_ZN2cv19connectedcomponentsL7setRootItEEvPT_S2_S2_.exit

.lr.ph.i:                                         ; preds = %_ZN2cv19connectedcomponentsL8findRootItEET_PKS2_S2_.exit16, %.lr.ph.i
  %17 = phi i16 [ %21, %.lr.ph.i ], [ %15, %_ZN2cv19connectedcomponentsL8findRootItEET_PKS2_S2_.exit16 ]
  %18 = phi ptr [ %20, %.lr.ph.i ], [ %14, %_ZN2cv19connectedcomponentsL8findRootItEET_PKS2_S2_.exit16 ]
  store i16 %spec.select, ptr %18, align 2, !tbaa !50
  %19 = zext i16 %17 to i64
  %20 = getelementptr inbounds nuw i16, ptr %0, i64 %19
  %21 = load i16, ptr %20, align 2, !tbaa !50
  %22 = icmp ult i16 %21, %17
  br i1 %22, label %.lr.ph.i, label %_ZN2cv19connectedcomponentsL7setRootItEEvPT_S2_S2_.exit, !llvm.loop !58

_ZN2cv19connectedcomponentsL7setRootItEEvPT_S2_S2_.exit: ; preds = %.lr.ph.i, %_ZN2cv19connectedcomponentsL8findRootItEET_PKS2_S2_.exit16
  %.lcssa.i = phi ptr [ %14, %_ZN2cv19connectedcomponentsL8findRootItEET_PKS2_S2_.exit16 ], [ %20, %.lr.ph.i ]
  store i16 %spec.select, ptr %.lcssa.i, align 2, !tbaa !50
  br label %23

23:                                               ; preds = %_ZN2cv19connectedcomponentsL7setRootItEEvPT_S2_S2_.exit, %_ZN2cv19connectedcomponentsL8findRootItEET_PKS2_S2_.exit
  %.0 = phi i16 [ %spec.select, %_ZN2cv19connectedcomponentsL7setRootItEEvPT_S2_S2_.exit ], [ %.0.i, %_ZN2cv19connectedcomponentsL8findRootItEET_PKS2_S2_.exit ]
  %24 = zext i16 %1 to i64
  %25 = getelementptr inbounds nuw i16, ptr %0, i64 %24
  %26 = load i16, ptr %25, align 2, !tbaa !50
  %27 = icmp ult i16 %26, %1
  br i1 %27, label %.lr.ph.i18, label %_ZN2cv19connectedcomponentsL7setRootItEEvPT_S2_S2_.exit19

.lr.ph.i18:                                       ; preds = %23, %.lr.ph.i18
  %28 = phi i16 [ %32, %.lr.ph.i18 ], [ %26, %23 ]
  %29 = phi ptr [ %31, %.lr.ph.i18 ], [ %25, %23 ]
  store i16 %.0, ptr %29, align 2, !tbaa !50
  %30 = zext i16 %28 to i64
  %31 = getelementptr inbounds nuw i16, ptr %0, i64 %30
  %32 = load i16, ptr %31, align 2, !tbaa !50
  %33 = icmp ult i16 %32, %28
  br i1 %33, label %.lr.ph.i18, label %_ZN2cv19connectedcomponentsL7setRootItEEvPT_S2_S2_.exit19, !llvm.loop !58

_ZN2cv19connectedcomponentsL7setRootItEEvPT_S2_S2_.exit19: ; preds = %.lr.ph.i18, %23
  %.lcssa.i17 = phi ptr [ %25, %23 ], [ %31, %.lr.ph.i18 ]
  store i16 %.0, ptr %.lcssa.i17, align 2, !tbaa !50
  ret i16 %.0
}